; Function Attrs: mustprogress nounwind uwtable
define hidden void @_ZN15NewInstanceStubC2E7LIR_OprS0_P15ciInstanceKlassP12CodeEmitInfoN8Runtime16StubIDE(ptr nocapture noundef nonnull writeonly align 8 dereferenceable(124) %0, i64 %1, i64 %2, ptr noundef %3, ptr noundef %4, i32 noundef %5) unnamed_addr #0 align 2 {
  %7 = getelementptr inbounds i8, ptr %0, i64 8
  store i32 -1, ptr %7, align 8
  %8 = getelementptr inbounds i8, ptr %0, i64 28
  store i32 0, ptr %8, align 4
  %9 = getelementptr inbounds i8, ptr %0, i64 32
  store ptr null, ptr %9, align 8
  %10 = getelementptr inbounds i8, ptr %0, i64 40
  store i8 0, ptr %10, align 8
  %11 = getelementptr inbounds i8, ptr %0, i64 48
  store i32 -1, ptr %11, align 8
  %12 = getelementptr inbounds i8, ptr %0, i64 68
  store i32 0, ptr %12, align 4
  %13 = getelementptr inbounds i8, ptr %0, i64 72
  store ptr null, ptr %13, align 8
  %14 = getelementptr inbounds i8, ptr %0, i64 80
  store i8 0, ptr %14, align 8
  store ptr getelementptr inbounds inrange(-16, 48) (i8, ptr @_ZTV15NewInstanceStub, i64 16), ptr %0, align 8
  %15 = getelementptr inbounds i8, ptr %0, i64 96
  %16 = getelementptr inbounds i8, ptr %0, i64 104
  store i64 %2, ptr %16, align 8
  %17 = getelementptr inbounds i8, ptr %0, i64 88
  store ptr %3, ptr %17, align 8
  store i64 %1, ptr %15, align 8
  %18 = tail call align 8 ptr @llvm.threadlocal.address.p0(ptr align 8 @_ZN6Thread12_thr_currentE)
  %19 = load ptr, ptr %18, align 8
  %20 = getelementptr inbounds i8, ptr %19, i64 1808
  %21 = load ptr, ptr %20, align 8
  %22 = getelementptr inbounds i8, ptr %21, i64 128
  %23 = load ptr, ptr %22, align 8
  %24 = load ptr, ptr %23, align 8
  %25 = getelementptr inbounds i8, ptr %24, i64 40
  %26 = load ptr, ptr %25, align 8
  %27 = getelementptr inbounds i8, ptr %24, i64 32
  %28 = load ptr, ptr %27, align 8
  %29 = ptrtoint ptr %26 to i64
  %30 = ptrtoint ptr %28 to i64
  %31 = sub i64 %29, %30
  %.not.i.i.i = icmp ult i64 %31, 48
  br i1 %.not.i.i.i, label %34, label %32

32:                                               ; preds = %6
  %33 = getelementptr inbounds i8, ptr %28, i64 48
  store ptr %33, ptr %27, align 8
  br label %_ZN22CompilationResourceObjnwEm.exit

34:                                               ; preds = %6
  %35 = tail call noundef ptr @_ZN5Arena4growEmN17AllocFailStrategy13AllocFailEnumE(ptr noundef nonnull align 8 dereferenceable(48) %24, i64 noundef 48, i32 noundef 0) #6
  br label %_ZN22CompilationResourceObjnwEm.exit

_ZN22CompilationResourceObjnwEm.exit:             ; preds = %32, %34
  %.0.i.i.i = phi ptr [ %28, %32 ], [ %35, %34 ]
  %36 = icmp eq ptr %.0.i.i.i, null
  br i1 %36, label %38, label %37

37:                                               ; preds = %_ZN22CompilationResourceObjnwEm.exit
  tail call void @_ZN12CodeEmitInfoC1EPS_P10ValueStack(ptr noundef nonnull align 8 dereferenceable(43) %.0.i.i.i, ptr noundef %4, ptr noundef null) #6
  br label %38

38:                                               ; preds = %37, %_ZN22CompilationResourceObjnwEm.exit
  %39 = getelementptr inbounds i8, ptr %0, i64 112
  store ptr %.0.i.i.i, ptr %39, align 8
  %40 = getelementptr inbounds i8, ptr %0, i64 120
  store i32 %5, ptr %40, align 8
  ret void
}